ccopy_reg
_reconstructor
p0
(cgoogle.oauth2.credentials
Credentials
p1
c__builtin__
object
p2
Ntp3
Rp4
(dp5
S'_token_uri'
p6
Vhttps://oauth2.googleapis.com/token
p7
sS'_scopes'
p8
(lp9
S'https://www.googleapis.com/auth/drive'
p10
asS'_id_token'
p11
NsS'token'
p12
Vya29.ImC0Bwg9bVMVV8y6gEqMw6DA3Pz-dGDpGsupLzQ60DbhkSkMsd1LJAzomS4-gdeeXQi6b43Mz3gndr0aOjjC4pX1CEkbcaWt4DU2R456YefOjAy7mGGbBtNIpPKYTGkItj8
p13
sS'_refresh_token'
p14
V1//06f2qi0nyoLepCgYIARAAGAYSNwF-L9IrJY6ptVustP6G-fTbVXX0vyqAf4hcYPtzQFL2Sf6NNg3871DdElRERRXHs5_9QCw1h6w
p15
sS'_client_secret'
p16
VdWLIFwHMvRbwdJlvsi5WGJFa
p17
sS'_client_id'
p18
V131642404649-5e0v7iouamboo9cl4g53kpefmjrccan4.apps.googleusercontent.com
p19
sS'expiry'
p20
cdatetime
datetime
p21
(S'\x07\xe3\x0c\x08\x05)\x01\n \x8e'
p22
tp23
Rp24
sb.